; Function Attrs: mustprogress nofree nounwind willreturn memory(readwrite, inaccessiblemem: write) uwtable
define internal noundef float @"_ZNSt17_Function_handlerIFfdEZN19OpenColorIO_v2_5dev7DISPLAY3HLG22GenerateLinearToHLGOpsERNS1_10OpRcPtrVecEE3$_0E9_M_invokeERKSt9_Any_dataOd"(ptr nonnull readnone align 8 captures(none) %0, ptr noundef nonnull readonly align 8 captures(none) dereferenceable(8) %1) #13 align 2 {
  %.val = load double, ptr %1, align 8, !tbaa !12
  %3 = tail call noundef double @llvm.fabs.f64(double %.val)
  %4 = fcmp olt double %3, 2.500000e-01
  br i1 %4, label %5, label %6

5:                                                ; preds = %2
  %sqrt.i.i.i = tail call double @llvm.sqrt.f64(double %3)
  br label %"_ZSt10__invoke_rIfRZN19OpenColorIO_v2_5dev7DISPLAY3HLG22GenerateLinearToHLGOpsERNS0_10OpRcPtrVecEE3$_0JdEENSt9enable_ifIXsr6__and_ISt6__not_ISt7is_voidIT_EESt14is_convertibleINSt15__invoke_resultIT0_JDpT1_EE4typeESA_EEE5valueESA_E4typeEOSF_DpOSG_.exit"

6:                                                ; preds = %2
  %7 = fadd double %3, 0xBFB23803FD659BE6
  %8 = tail call double @log(double noundef %7) #23, !tbaa !14
  %9 = load double, ptr @_ZN19OpenColorIO_v2_5dev7DISPLAY3HLGL1cE, align 8, !tbaa !12
  %10 = tail call double @llvm.fmuladd.f64(double %8, double 0x3FC6E3FE014D320D, double %9)
  br label %"_ZSt10__invoke_rIfRZN19OpenColorIO_v2_5dev7DISPLAY3HLG22GenerateLinearToHLGOpsERNS0_10OpRcPtrVecEE3$_0JdEENSt9enable_ifIXsr6__and_ISt6__not_ISt7is_voidIT_EESt14is_convertibleINSt15__invoke_resultIT0_JDpT1_EE4typeESA_EEE5valueESA_E4typeEOSF_DpOSG_.exit"

"_ZSt10__invoke_rIfRZN19OpenColorIO_v2_5dev7DISPLAY3HLG22GenerateLinearToHLGOpsERNS0_10OpRcPtrVecEE3$_0JdEENSt9enable_ifIXsr6__and_ISt6__not_ISt7is_voidIT_EESt14is_convertibleINSt15__invoke_resultIT0_JDpT1_EE4typeESA_EEE5valueESA_E4typeEOSF_DpOSG_.exit": ; preds = %5, %6
  %.0.i.i.i = phi double [ %sqrt.i.i.i, %5 ], [ %10, %6 ]
  %11 = tail call double @llvm.copysign.f64(double %.0.i.i.i, double %.val)
  %12 = fptrunc double %11 to float
  ret float %12
}